ccopy_reg
_reconstructor
p0
(cdedupe.datamodel
DataModel
p1
c__builtin__
dict
p2
(dp3
S'fields'
p4
(lp5
g0
(cdedupe.variables.string
StringType
p6
c__builtin__
object
p7
Ntp8
Rp9
(dp10
S'name'
p11
S'(name: String)'
p12
sS'comparator'
p13
caffinegap.affinegap
normalizedAffineGapDistance
p14
sS'weight'
p15
F-3.2766994051178853
sS'field'
p16
g11
sS'has_missing'
p17
I00
sS'predicates'
p18
(lp19
g0
(cdedupe.predicates
SimplePredicate
p20
g7
Ntp21
Rp22
(dp23
S'__name__'
p24
S'(wholeFieldPredicate, name)'
p25
sS'func'
p26
cdedupe.predicates
wholeFieldPredicate
p27
sg16
g11
sbag0
(g20
g7
Ntp28
Rp29
(dp30
g24
S'(firstTokenPredicate, name)'
p31
sg26
cdedupe.predicates
firstTokenPredicate
p32
sg16
g11
sbag0
(g20
g7
Ntp33
Rp34
(dp35
g24
S'(commonIntegerPredicate, name)'
p36
sg26
cdedupe.predicates
commonIntegerPredicate
p37
sg16
g11
sbag0
(g20
g7
Ntp38
Rp39
(dp40
g24
S'(nearIntegersPredicate, name)'
p41
sg26
cdedupe.predicates
nearIntegersPredicate
p42
sg16
g11
sbag0
(g20
g7
Ntp43
Rp44
(dp45
g24
S'(firstIntegerPredicate, name)'
p46
sg26
cdedupe.predicates
firstIntegerPredicate
p47
sg16
g11
sbag0
(g20
g7
Ntp48
Rp49
(dp50
g24
S'(sameThreeCharStartPredicate, name)'
p51
sg26
cdedupe.predicates
sameThreeCharStartPredicate
p52
sg16
g11
sbag0
(g20
g7
Ntp53
Rp54
(dp55
g24
S'(sameFiveCharStartPredicate, name)'
p56
sg26
cdedupe.predicates
sameFiveCharStartPredicate
p57
sg16
g11
sbag0
(g20
g7
Ntp58
Rp59
(dp60
g24
S'(sameSevenCharStartPredicate, name)'
p61
sg26
cdedupe.predicates
sameSevenCharStartPredicate
p62
sg16
g11
sbag0
(g20
g7
Ntp63
Rp64
(dp65
g24
S'(commonTwoTokens, name)'
p66
sg26
cdedupe.predicates
commonTwoTokens
p67
sg16
g11
sbag0
(g20
g7
Ntp68
Rp69
(dp70
g24
S'(commonThreeTokens, name)'
p71
sg26
cdedupe.predicates
commonThreeTokens
p72
sg16
g11
sbag0
(g20
g7
Ntp73
Rp74
(dp75
g24
S'(fingerprint, name)'
p76
sg26
cdedupe.predicates
fingerprint
p77
sg16
g11
sbag0
(g20
g7
Ntp78
Rp79
(dp80
g24
S'(oneGramFingerprint, name)'
p81
sg26
cdedupe.predicates
oneGramFingerprint
p82
sg16
g11
sbag0
(g20
g7
Ntp83
Rp84
(dp85
g24
S'(twoGramFingerprint, name)'
p86
sg26
cdedupe.predicates
twoGramFingerprint
p87
sg16
g11
sbag0
(g20
g7
Ntp88
Rp89
(dp90
g24
S'(sortedAcronym, name)'
p91
sg26
cdedupe.predicates
sortedAcronym
p92
sg16
g11
sbag0
(g20
g7
Ntp93
Rp94
(dp95
g24
S'(commonFourGram, name)'
p96
sg26
cdedupe.predicates
commonFourGram
p97
sg16
g11
sbag0
(g20
g7
Ntp98
Rp99
(dp100
g24
S'(commonSixGram, name)'
p101
sg26
cdedupe.predicates
commonSixGram
p102
sg16
g11
sbag0
(g20
g7
Ntp103
Rp104
(dp105
g24
S'(tokenFieldPredicate, name)'
p106
sg26
cdedupe.predicates
tokenFieldPredicate
p107
sg16
g11
sbag0
(g20
g7
Ntp108
Rp109
(dp110
g24
S'(suffixArray, name)'
p111
sg26
cdedupe.predicates
suffixArray
p112
sg16
g11
sbag0
(g20
g7
Ntp113
Rp114
(dp115
g24
S'(doubleMetaphone, name)'
p116
sg26
cdedupe.predicates
doubleMetaphone
p117
sg16
g11
sbag0
(g20
g7
Ntp118
Rp119
(dp120
g24
S'(metaphoneToken, name)'
p121
sg26
cdedupe.predicates
metaphoneToken
p122
sg16
g11
sbag0
(cdedupe.predicates
TfidfNGramCanopyPredicate
p123
g7
Ntp124
Rp125
(dp126
S'threshold'
p127
F0.2
sg24
S'(0.2, name)'
p128
sg16
g11
sbag0
(g123
g7
Ntp129
Rp130
(dp131
g127
F0.4
sg24
S'(0.4, name)'
p132
sg16
g11
sbag0
(g123
g7
Ntp133
Rp134
(dp135
g127
F0.6
sg24
S'(0.6, name)'
p136
sg16
g11
sbag0
(g123
g7
Ntp137
Rp138
(dp139
g127
F0.8
sg24
S'(0.8, name)'
p140
sg16
g11
sbag0
(cdedupe.predicates
TfidfNGramSearchPredicate
p141
g7
Ntp142
Rp143
(dp144
g127
F0.2
sg24
S'(0.2, name)'
p145
sg16
g11
sbag0
(g141
g7
Ntp146
Rp147
(dp148
g127
F0.4
sg24
S'(0.4, name)'
p149
sg16
g11
sbag0
(g141
g7
Ntp150
Rp151
(dp152
g127
F0.6
sg24
S'(0.6, name)'
p153
sg16
g11
sbag0
(g141
g7
Ntp154
Rp155
(dp156
g127
F0.8
sg24
S'(0.8, name)'
p157
sg16
g11
sbag0
(cdedupe.predicates
TfidfTextCanopyPredicate
p158
g7
Ntp159
Rp160
(dp161
g127
F0.2
sg24
S'(0.2, name)'
p162
sg16
g11
sbag0
(g158
g7
Ntp163
Rp164
(dp165
g127
F0.4
sg24
S'(0.4, name)'
p166
sg16
g11
sbag0
(g158
g7
Ntp167
Rp168
(dp169
g127
F0.6
sg24
S'(0.6, name)'
p170
sg16
g11
sbag0
(g158
g7
Ntp171
Rp172
(dp173
g127
F0.8
sg24
S'(0.8, name)'
p174
sg16
g11
sbag0
(cdedupe.predicates
TfidfTextSearchPredicate
p175
g7
Ntp176
Rp177
(dp178
g127
F0.2
sg24
S'(0.2, name)'
p179
sg16
g11
sbag0
(g175
g7
Ntp180
Rp181
(dp182
g127
F0.4
sg24
S'(0.4, name)'
p183
sg16
g11
sbag0
(g175
g7
Ntp184
Rp185
(dp186
g127
F0.6
sg24
S'(0.6, name)'
p187
sg16
g11
sbag0
(g175
g7
Ntp188
Rp189
(dp190
g127
F0.8
sg24
S'(0.8, name)'
p191
sg16
g11
sbasbag0
(g6
g7
Ntp192
Rp193
(dp194
g11
S'(volume: String)'
p195
sg13
g14
sg15
F-0.02402168851195267
sg16
S'volume'
p196
sg17
I00
sg18
(lp197
g0
(g20
g7
Ntp198
Rp199
(dp200
g24
S'(wholeFieldPredicate, volume)'
p201
sg26
g27
sg16
g196
sbag0
(g20
g7
Ntp202
Rp203
(dp204
g24
S'(firstTokenPredicate, volume)'
p205
sg26
g32
sg16
g196
sbag0
(g20
g7
Ntp206
Rp207
(dp208
g24
S'(commonIntegerPredicate, volume)'
p209
sg26
g37
sg16
g196
sbag0
(g20
g7
Ntp210
Rp211
(dp212
g24
S'(nearIntegersPredicate, volume)'
p213
sg26
g42
sg16
g196
sbag0
(g20
g7
Ntp214
Rp215
(dp216
g24
S'(firstIntegerPredicate, volume)'
p217
sg26
g47
sg16
g196
sbag0
(g20
g7
Ntp218
Rp219
(dp220
g24
S'(sameThreeCharStartPredicate, volume)'
p221
sg26
g52
sg16
g196
sbag0
(g20
g7
Ntp222
Rp223
(dp224
g24
S'(sameFiveCharStartPredicate, volume)'
p225
sg26
g57
sg16
g196
sbag0
(g20
g7
Ntp226
Rp227
(dp228
g24
S'(sameSevenCharStartPredicate, volume)'
p229
sg26
g62
sg16
g196
sbag0
(g20
g7
Ntp230
Rp231
(dp232
g24
S'(commonTwoTokens, volume)'
p233
sg26
g67
sg16
g196
sbag0
(g20
g7
Ntp234
Rp235
(dp236
g24
S'(commonThreeTokens, volume)'
p237
sg26
g72
sg16
g196
sbag0
(g20
g7
Ntp238
Rp239
(dp240
g24
S'(fingerprint, volume)'
p241
sg26
g77
sg16
g196
sbag0
(g20
g7
Ntp242
Rp243
(dp244
g24
S'(oneGramFingerprint, volume)'
p245
sg26
g82
sg16
g196
sbag0
(g20
g7
Ntp246
Rp247
(dp248
g24
S'(twoGramFingerprint, volume)'
p249
sg26
g87
sg16
g196
sbag0
(g20
g7
Ntp250
Rp251
(dp252
g24
S'(sortedAcronym, volume)'
p253
sg26
g92
sg16
g196
sbag0
(g20
g7
Ntp254
Rp255
(dp256
g24
S'(commonFourGram, volume)'
p257
sg26
g97
sg16
g196
sbag0
(g20
g7
Ntp258
Rp259
(dp260
g24
S'(commonSixGram, volume)'
p261
sg26
g102
sg16
g196
sbag0
(g20
g7
Ntp262
Rp263
(dp264
g24
S'(tokenFieldPredicate, volume)'
p265
sg26
g107
sg16
g196
sbag0
(g20
g7
Ntp266
Rp267
(dp268
g24
S'(suffixArray, volume)'
p269
sg26
g112
sg16
g196
sbag0
(g20
g7
Ntp270
Rp271
(dp272
g24
S'(doubleMetaphone, volume)'
p273
sg26
g117
sg16
g196
sbag0
(g20
g7
Ntp274
Rp275
(dp276
g24
S'(metaphoneToken, volume)'
p277
sg26
g122
sg16
g196
sbag0
(g123
g7
Ntp278
Rp279
(dp280
g127
F0.2
sg24
S'(0.2, volume)'
p281
sg16
g196
sbag0
(g123
g7
Ntp282
Rp283
(dp284
g127
F0.4
sg24
S'(0.4, volume)'
p285
sg16
g196
sbag0
(g123
g7
Ntp286
Rp287
(dp288
g127
F0.6
sg24
S'(0.6, volume)'
p289
sg16
g196
sbag0
(g123
g7
Ntp290
Rp291
(dp292
g127
F0.8
sg24
S'(0.8, volume)'
p293
sg16
g196
sbag0
(g141
g7
Ntp294
Rp295
(dp296
g127
F0.2
sg24
S'(0.2, volume)'
p297
sg16
g196
sbag0
(g141
g7
Ntp298
Rp299
(dp300
g127
F0.4
sg24
S'(0.4, volume)'
p301
sg16
g196
sbag0
(g141
g7
Ntp302
Rp303
(dp304
g127
F0.6
sg24
S'(0.6, volume)'
p305
sg16
g196
sbag0
(g141
g7
Ntp306
Rp307
(dp308
g127
F0.8
sg24
S'(0.8, volume)'
p309
sg16
g196
sbag0
(g158
g7
Ntp310
Rp311
(dp312
g127
F0.2
sg24
S'(0.2, volume)'
p313
sg16
g196
sbag0
(g158
g7
Ntp314
Rp315
(dp316
g127
F0.4
sg24
S'(0.4, volume)'
p317
sg16
g196
sbag0
(g158
g7
Ntp318
Rp319
(dp320
g127
F0.6
sg24
S'(0.6, volume)'
p321
sg16
g196
sbag0
(g158
g7
Ntp322
Rp323
(dp324
g127
F0.8
sg24
S'(0.8, volume)'
p325
sg16
g196
sbag0
(g175
g7
Ntp326
Rp327
(dp328
g127
F0.2
sg24
S'(0.2, volume)'
p329
sg16
g196
sbag0
(g175
g7
Ntp330
Rp331
(dp332
g127
F0.4
sg24
S'(0.4, volume)'
p333
sg16
g196
sbag0
(g175
g7
Ntp334
Rp335
(dp336
g127
F0.6
sg24
S'(0.6, volume)'
p337
sg16
g196
sbag0
(g175
g7
Ntp338
Rp339
(dp340
g127
F0.8
sg24
S'(0.8, volume)'
p341
sg16
g196
sbasbag0
(g6
g7
Ntp342
Rp343
(dp344
g11
S'(style: String)'
p345
sg13
g14
sg15
F-1.1364872981940128
sg16
S'style'
p346
sg17
I01
sg18
(lp347
g0
(g20
g7
Ntp348
Rp349
(dp350
g24
S'(wholeFieldPredicate, style)'
p351
sg26
g27
sg16
g346
sbag0
(g20
g7
Ntp352
Rp353
(dp354
g24
S'(firstTokenPredicate, style)'
p355
sg26
g32
sg16
g346
sbag0
(g20
g7
Ntp356
Rp357
(dp358
g24
S'(commonIntegerPredicate, style)'
p359
sg26
g37
sg16
g346
sbag0
(g20
g7
Ntp360
Rp361
(dp362
g24
S'(nearIntegersPredicate, style)'
p363
sg26
g42
sg16
g346
sbag0
(g20
g7
Ntp364
Rp365
(dp366
g24
S'(firstIntegerPredicate, style)'
p367
sg26
g47
sg16
g346
sbag0
(g20
g7
Ntp368
Rp369
(dp370
g24
S'(sameThreeCharStartPredicate, style)'
p371
sg26
g52
sg16
g346
sbag0
(g20
g7
Ntp372
Rp373
(dp374
g24
S'(sameFiveCharStartPredicate, style)'
p375
sg26
g57
sg16
g346
sbag0
(g20
g7
Ntp376
Rp377
(dp378
g24
S'(sameSevenCharStartPredicate, style)'
p379
sg26
g62
sg16
g346
sbag0
(g20
g7
Ntp380
Rp381
(dp382
g24
S'(commonTwoTokens, style)'
p383
sg26
g67
sg16
g346
sbag0
(g20
g7
Ntp384
Rp385
(dp386
g24
S'(commonThreeTokens, style)'
p387
sg26
g72
sg16
g346
sbag0
(g20
g7
Ntp388
Rp389
(dp390
g24
S'(fingerprint, style)'
p391
sg26
g77
sg16
g346
sbag0
(g20
g7
Ntp392
Rp393
(dp394
g24
S'(oneGramFingerprint, style)'
p395
sg26
g82
sg16
g346
sbag0
(g20
g7
Ntp396
Rp397
(dp398
g24
S'(twoGramFingerprint, style)'
p399
sg26
g87
sg16
g346
sbag0
(g20
g7
Ntp400
Rp401
(dp402
g24
S'(sortedAcronym, style)'
p403
sg26
g92
sg16
g346
sbag0
(g20
g7
Ntp404
Rp405
(dp406
g24
S'(commonFourGram, style)'
p407
sg26
g97
sg16
g346
sbag0
(g20
g7
Ntp408
Rp409
(dp410
g24
S'(commonSixGram, style)'
p411
sg26
g102
sg16
g346
sbag0
(g20
g7
Ntp412
Rp413
(dp414
g24
S'(tokenFieldPredicate, style)'
p415
sg26
g107
sg16
g346
sbag0
(g20
g7
Ntp416
Rp417
(dp418
g24
S'(suffixArray, style)'
p419
sg26
g112
sg16
g346
sbag0
(g20
g7
Ntp420
Rp421
(dp422
g24
S'(doubleMetaphone, style)'
p423
sg26
g117
sg16
g346
sbag0
(g20
g7
Ntp424
Rp425
(dp426
g24
S'(metaphoneToken, style)'
p427
sg26
g122
sg16
g346
sbag0
(g123
g7
Ntp428
Rp429
(dp430
g127
F0.2
sg24
S'(0.2, style)'
p431
sg16
g346
sbag0
(g123
g7
Ntp432
Rp433
(dp434
g127
F0.4
sg24
S'(0.4, style)'
p435
sg16
g346
sbag0
(g123
g7
Ntp436
Rp437
(dp438
g127
F0.6
sg24
S'(0.6, style)'
p439
sg16
g346
sbag0
(g123
g7
Ntp440
Rp441
(dp442
g127
F0.8
sg24
S'(0.8, style)'
p443
sg16
g346
sbag0
(g141
g7
Ntp444
Rp445
(dp446
g127
F0.2
sg24
S'(0.2, style)'
p447
sg16
g346
sbag0
(g141
g7
Ntp448
Rp449
(dp450
g127
F0.4
sg24
S'(0.4, style)'
p451
sg16
g346
sbag0
(g141
g7
Ntp452
Rp453
(dp454
g127
F0.6
sg24
S'(0.6, style)'
p455
sg16
g346
sbag0
(g141
g7
Ntp456
Rp457
(dp458
g127
F0.8
sg24
S'(0.8, style)'
p459
sg16
g346
sbag0
(g158
g7
Ntp460
Rp461
(dp462
g127
F0.2
sg24
S'(0.2, style)'
p463
sg16
g346
sbag0
(g158
g7
Ntp464
Rp465
(dp466
g127
F0.4
sg24
S'(0.4, style)'
p467
sg16
g346
sbag0
(g158
g7
Ntp468
Rp469
(dp470
g127
F0.6
sg24
S'(0.6, style)'
p471
sg16
g346
sbag0
(g158
g7
Ntp472
Rp473
(dp474
g127
F0.8
sg24
S'(0.8, style)'
p475
sg16
g346
sbag0
(g175
g7
Ntp476
Rp477
(dp478
g127
F0.2
sg24
S'(0.2, style)'
p479
sg16
g346
sbag0
(g175
g7
Ntp480
Rp481
(dp482
g127
F0.4
sg24
S'(0.4, style)'
p483
sg16
g346
sbag0
(g175
g7
Ntp484
Rp485
(dp486
g127
F0.6
sg24
S'(0.6, style)'
p487
sg16
g346
sbag0
(g175
g7
Ntp488
Rp489
(dp490
g127
F0.8
sg24
S'(0.8, style)'
p491
sg16
g346
sbag0
(cdedupe.predicates
ExistsPredicate
p492
g7
Ntp493
Rp494
(dp495
g24
S'(Exists, style)'
p496
sg16
g346
sbasbag0
(cdedupe.variables.base
MissingDataType
p497
g7
Ntp498
Rp499
(dp500
g17
I00
sg11
S'((style: String): Not Missing)'
p501
sg15
F-0.901458518523304
sbasS'bias'
p502
cnumpy.core.multiarray
scalar
p503
(cnumpy
dtype
p504
(S'f8'
p505
I0
I1
tp506
Rp507
(I3
S'<'
p508
NNNI-1
I-1
I0
tp509
bS'\xec\xc4~\xa1\xdc\xfc\x0e@'
p510
tp511
Rp512
stp513
Rp514
(dp515
S'primary_fields'
p516
(lp517
g9
ag193
ag343
asS'n_fields'
p518
I4
sS'derived_start'
p519
I3
sb.(ccopy_reg
_reconstructor
p0
(cdedupe.predicates
CompoundPredicate
p1
c__builtin__
object
p2
Ntp3
Rp4
(dp5
S'predicates'
p6
(g0
(cdedupe.predicates
TfidfTextCanopyPredicate
p7
g2
Ntp8
Rp9
(dp10
S'threshold'
p11
F0.8
sS'__name__'
p12
S'(0.8, name)'
p13
sS'field'
p14
S'name'
p15
sbg0
(cdedupe.predicates
SimplePredicate
p16
g2
Ntp17
Rp18
(dp19
g12
S'(firstIntegerPredicate, name)'
p20
sS'func'
p21
cdedupe.predicates
firstIntegerPredicate
p22
sg14
g15
sbtp23
sg12
V(TfidfTextCanopyPredicate: (0.8, name), SimplePredicate: (firstIntegerPredicate, name))
p24
sbg0
(g1
g2
Ntp25
Rp26
(dp27
g6
(g0
(g7
g2
Ntp28
Rp29
(dp30
g11
F0.2
sg12
S'(0.2, name)'
p31
sg14
g15
sbg18
tp32
sg12
V(TfidfTextCanopyPredicate: (0.2, name), SimplePredicate: (firstIntegerPredicate, name))
p33
sbg0
(g1
g2
Ntp34
Rp35
(dp36
g6
(g29
g0
(g7
g2
Ntp37
Rp38
(dp39
g11
F0.6
sg12
S'(0.6, name)'
p40
sg14
g15
sbtp41
sg12
V(TfidfTextCanopyPredicate: (0.2, name), TfidfTextCanopyPredicate: (0.6, name))
p42
sbg0
(g1
g2
Ntp43
Rp44
(dp45
g6
(g0
(g16
g2
Ntp46
Rp47
(dp48
g12
S'(commonTwoTokens, style)'
p49
sg21
cdedupe.predicates
commonTwoTokens
p50
sg14
S'style'
p51
sbg0
(g7
g2
Ntp52
Rp53
(dp54
g11
F0.4
sg12
S'(0.4, name)'
p55
sg14
g15
sbtp56
sg12
V(SimplePredicate: (commonTwoTokens, style), TfidfTextCanopyPredicate: (0.4, name))
p57
sbg0
(g1
g2
Ntp58
Rp59
(dp60
g6
(g29
g0
(g16
g2
Ntp61
Rp62
(dp63
g12
S'(commonThreeTokens, name)'
p64
sg21
cdedupe.predicates
commonThreeTokens
p65
sg14
g15
sbtp66
sg12
V(TfidfTextCanopyPredicate: (0.2, name), SimplePredicate: (commonThreeTokens, name))
p67
sbtp68
.(dp0
S'name'
p1
(dp2
S'TfidfTextCanopyPredicate'
p3
c__builtin__
set
p4
((lp5
tp6
Rp7
ss.